target datalayout = "e-m:e-p270:32:32-p271:32:32-p272:64:64-i64:64-i128:128-f80:128-n8:16:32:64-S128"
target triple = "x86_64-pc-linux-gnu"

%"class.google::protobuf::io::CodedInputStream" = type { ptr, ptr, ptr, i32, i32, i32, i8, i8, i32, i32, i32, i32, i32, ptr, ptr }

; Function Attrs: inlinehint mustprogress nounwind uwtable
define linkonce_odr hidden noundef i32 @_ZNK6google8protobuf2io16CodedInputStream10BufferSizeEv(ptr noundef nonnull align 8 dereferenceable(80) %0) #8 comdat align 2 {
  %2 = alloca ptr, align 8
  store ptr %0, ptr %2, align 8, !tbaa !3
  %3 = load ptr, ptr %2, align 8
  %4 = getelementptr inbounds nuw %"class.google::protobuf::io::CodedInputStream", ptr %3, i32 0, i32 1
  %5 = load ptr, ptr %4, align 8, !tbaa !23
  %6 = getelementptr inbounds nuw %"class.google::protobuf::io::CodedInputStream", ptr %3, i32 0, i32 0
  %7 = load ptr, ptr %6, align 8, !tbaa !22
  %8 = ptrtoint ptr %5 to i64
  %9 = ptrtoint ptr %7 to i64
  %10 = sub i64 %8, %9
  %11 = trunc i64 %10 to i32
  ret i32 %11
}

; Function Attrs: inlinehint mustprogress nounwind uwtable
define linkonce_odr hidden noundef i32 @_ZNK6google8protobuf2io16CodedInputStream15CurrentPositionEv(ptr noundef nonnull align 8 dereferenceable(80) %0) #8 comdat align 2 {
  %2 = alloca ptr, align 8
  store ptr %0, ptr %2, align 8, !tbaa !3
  %3 = load ptr, ptr %2, align 8
  %4 = getelementptr inbounds nuw %"class.google::protobuf::io::CodedInputStream", ptr %3, i32 0, i32 3
  %5 = load i32, ptr %4, align 8, !tbaa !21
  %6 = call noundef i32 @_ZNK6google8protobuf2io16CodedInputStream10BufferSizeEv(ptr noundef nonnull align 8 dereferenceable(80) %3)
  %7 = getelementptr inbounds nuw %"class.google::protobuf::io::CodedInputStream", ptr %3, i32 0, i32 9
  %8 = load i32, ptr %7, align 4, !tbaa !16
  %9 = add nsw i32 %6, %8
  %10 = sub nsw i32 %5, %9
  ret i32 %10
}

; Function Attrs: mustprogress uwtable
define hidden noundef i32 @_ZNK6google8protobuf2io16CodedInputStream15BytesUntilLimitEv(ptr noundef nonnull align 8 dereferenceable(80) %0) #5 align 2 {
  %2 = alloca i32, align 4
  %3 = alloca ptr, align 8
  %4 = alloca i32, align 4
  store ptr %0, ptr %3, align 8, !tbaa !3
  %5 = load ptr, ptr %3, align 8
  %6 = getelementptr inbounds nuw %"class.google::protobuf::io::CodedInputStream", ptr %5, i32 0, i32 8
  %7 = load i32, ptr %6, align 8, !tbaa !24
  %8 = icmp eq i32 %7, 2147483647
  br i1 %8, label %9, label %10

9:                                                ; preds = %1
  store i32 -1, ptr %2, align 4
  br label %16

10:                                               ; preds = %1
  call void @llvm.lifetime.start.p0(i64 4, ptr %4) #3
  %11 = call noundef i32 @_ZNK6google8protobuf2io16CodedInputStream15CurrentPositionEv(ptr noundef nonnull align 8 dereferenceable(80) %5)
  store i32 %11, ptr %4, align 4, !tbaa !18
  %12 = getelementptr inbounds nuw %"class.google::protobuf::io::CodedInputStream", ptr %5, i32 0, i32 8
  %13 = load i32, ptr %12, align 8, !tbaa !24
  %14 = load i32, ptr %4, align 4, !tbaa !18
  %15 = sub nsw i32 %13, %14
  store i32 %15, ptr %2, align 4
  call void @llvm.lifetime.end.p0(i64 4, ptr %4) #3
  br label %16

16:                                               ; preds = %10, %9
  %17 = load i32, ptr %2, align 4
  ret i32 %17
}